ccopy_reg
_reconstructor
p1
(cnltk.classify.naivebayes
NaiveBayesClassifier
p2
c__builtin__
object
p3
NtRp4
(dp5
S'_labels'
p6
(lp7
S'male'
p8
aS'female'
p9
asS'_feature_probdist'
p10
(dp11
(g8
S'last_is_vowel'
p12
tp13
g1
(cnltk.probability
ELEProbDist
p14
g3
NtRp15
(dp16
S'_gamma'
p17
F0.5
sS'_N'
p18
I2020
sS'_freqdist'
p19
cnltk.probability
FreqDist
p20
((dp21
I00
I1513
sI01
I507
stRp22
sS'_bins'
p23
I2
sS'_divisor'
p24
F2021
sbs(g9
S'last_two'
p25
tp26
g1
(g14
g3
NtRp27
(dp28
g17
F0.5
sg18
I3540
sg19
g20
((dp29
Vgy
p30
I5
sVge
p31
I7
sVch
p32
I2
sVga
p33
I4
sVgo
p34
I1
sVgi
p35
I3
sVgh
p36
I5
sVld
p37
I1
sVle
p38
I96
sVty
p39
I25
sVvy
p40
I3
sVlo
p41
I3
sVtt
p42
I9
sVBo
p43
I1
sVli
p44
I27
sVJo
p45
I2
sVth
p46
I26
sVti
p47
I19
sVte
p48
I90
sVta
p49
I148
sVdo
p50
I1
sVyl
p51
I7
sVdi
p52
I20
sVya
p53
I21
sVde
p54
I31
sVye
p55
I11
sVda
p56
I97
sVdy
p57
I29
sVys
p58
I7
sVyt
p59
I1
sVem
p60
I1
sVel
p61
I52
sVeo
p62
I3
sVen
p63
I65
sVei
p64
I2
sVzi
p65
I3
sVee
p66
I75
sVed
p67
I5
sVeg
p68
I1
sVea
p69
I25
sVza
p70
I7
sVeb
p71
I1
sVah
p72
I42
sVey
p73
I76
sVzy
p74
I3
sVet
p75
I19
sVew
p76
I2
sVev
p77
I1
sVes
p78
I6
sVer
p79
I17
sVrt
p80
I1
sVry
p81
I31
sVrd
p82
I3
sVre
p83
I30
sVrg
p84
I3
sVra
p85
I118
sVrb
p86
I2
sVrl
p87
I5
sVro
p88
I1
sVri
p89
I34
sVrj
p90
I1
sVrk
p91
I1
sVbe
p92
I7
sVwe
p93
I1
sVba
p94
I5
sVwn
p95
I2
sVbi
p96
I14
sVjo
p97
I3
sVby
p98
I12
sVoo
p99
I1
sVon
p100
I20
sVol
p101
I5
sVok
p102
I1
sVoh
p103
I1
sVoe
p104
I2
sVla
p105
I143
sVoy
p106
I1
sVou
p107
I2
sVot
p108
I2
sVos
p109
I1
sVll
p110
I20
sVci
p111
I7
sVxi
p112
I4
sVva
p113
I15
sVca
p114
I27
sVxa
p115
I1
sVce
p116
I42
sVcy
p117
I9
sVxy
p118
I3
sVve
p119
I6
sVpy
p120
I2
sVja
p121
I4
sVke
p122
I7
sVlu
p123
I1
sVvi
p124
I1
sVpi
p125
I1
sVEm
p126
I1
sVhy
p127
I4
sVst
p128
I1
sVpe
p129
I4
sVsy
p130
I22
sVit
p131
I11
sVhi
p132
I3
sVha
p133
I36
sVhe
p134
I15
sVme
p135
I2
sVma
p136
I16
sVux
p137
I2
sVmb
p138
I1
sVmi
p139
I14
sVum
p140
I1
sVun
p141
I3
sVui
p142
I1
sVue
p143
I5
sVud
p144
I1
sVly
p145
I34
sVmy
p146
I11
sVex
p147
I1
sViy
p148
I1
sVix
p149
I3
sVab
p150
I2
sVae
p151
I4
sVad
p152
I3
sVag
p153
I1
sVaf
p154
I1
sVai
p155
I2
sVip
p156
I1
sVis
p157
I29
sVir
p158
I1
sVam
p159
I3
sVal
p160
I15
sVan
p161
I48
sVay
p162
I11
sVas
p163
I5
sVar
p164
I2
sVim
p165
I1
sVil
p166
I16
sVio
p167
I2
sVin
p168
I51
sVia
p169
I189
sVax
p170
I1
sVib
p171
I1
sVie
p172
I282
sVid
p173
I6
sVig
p174
I1
sVni
p175
I35
sVnn
p176
I43
sVDi
p177
I1
sVpa
p178
I7
sVyn
p179
I57
sVnd
p180
I7
sVne
p181
I245
sVny
p182
I32
sVnt
p183
I7
sVfy
p184
I2
sVfa
p185
I2
sVze
p186
I2
sVfi
p187
I2
sVsa
p188
I76
sVka
p189
I25
sVAg
p190
I1
sVss
p191
I6
sVVi
p192
I1
sVki
p193
I9
sVko
p194
I6
sViz
p195
I2
sVor
p196
I8
sVks
p197
I1
sVsi
p198
I10
sVsh
p199
I2
sVna
p200
I323
sVat
p201
I3
sVky
p202
I7
sVse
p203
I36
stRp204
sg23
I264
sg24
F3672
sbs(g9
S'male_prob'
p205
tp206
g1
(g14
g3
NtRp207
(dp208
g17
F0.5
sg18
I3540
sg19
g20
((dp209
F0.00019996000799840031
I3540
stRp210
sg23
I2
sg24
F3541
sbs(g9
S'last_letter'
p211
tp212
g1
(g14
g3
NtRp213
(dp214
g17
F0.5
sg18
I3540
sg19
g20
((dp215
Va
I1289
sVb
I7
sVe
I1000
sVd
I26
sVg
I7
sVf
I1
sVi
I213
sVh
I78
sVk
I2
sVj
I1
sVm
I7
sVl
I120
sVo
I24
sVn
I289
sVp
I1
sVs
I55
sVr
I28
sVu
I3
sVt
I54
sVw
I2
sVv
I1
sVy
I323
sVx
I7
sVz
I2
stRp216
sg23
I25
sg24
F3552.5
sbs(g8
g211
tp217
g1
(g14
g3
NtRp218
(dp219
g17
F0.5
sg18
I2020
sg19
g20
((dp220
Va
I22
sVc
I19
sVb
I9
sVe
I323
sVd
I156
sVg
I23
sVf
I16
sVi
I34
sVh
I62
sVk
I54
sVj
I2
sVm
I44
sVl
I137
sVo
I121
sVn
I322
sVp
I12
sVs
I154
sVr
I123
sVu
I7
sVt
I112
sVw
I12
sVv
I12
sVy
I230
sVx
I7
sVz
I7
stRp221
sg23
I25
sg24
F2032.5
sbs(g8
g25
tp222
g1
(g14
g3
NtRp223
(dp224
g17
F0.5
sg18
I2020
sg19
g20
((dp225
Vgt
p226
I1
sVgs
p227
I2
sVgy
p228
I3
sVgg
p229
I1
sVge
p230
I7
sVgo
p231
I5
sVgi
p232
I2
sVgh
p233
I3
sVlf
p234
I6
sVld
p235
I26
sVle
p236
I31
sVtz
p237
I2
sVty
p238
I11
sVln
p239
I1
sVlo
p240
I15
sVll
p241
I41
sVBo
p242
I1
sVtr
p243
I2
sVts
p244
I1
sVli
p245
I5
sVto
p246
I12
sVlt
p247
I4
sVlu
p248
I1
sVav
p249
I3
sVls
p250
I4
sVth
p251
I12
sVti
p252
I1
sVtf
p253
I1
sVte
p254
I11
sVly
p255
I16
sVdo
p256
I16
sVyl
p257
I4
sVyn
p258
I7
sVya
p259
I1
sVdd
p260
I3
sVde
p261
I10
sVye
p262
I3
sVyd
p263
I3
sVay
p264
I13
sVdy
p265
I20
sVdt
p266
I1
sVds
p267
I2
sVyt
p268
I1
sVem
p269
I6
sVel
p270
I45
sVeo
p271
I4
sVen
p272
I41
sVei
p273
I2
sVek
p274
I3
sVej
p275
I1
sVee
p276
I5
sVed
p277
I14
sVeg
p278
I2
sVef
p279
I1
sVec
p280
I1
sVeb
p281
I3
sVah
p282
I15
sVey
p283
I53
sVzy
p284
I3
sVez
p285
I1
sVeu
p286
I1
sVet
p287
I12
sVew
p288
I7
sVev
p289
I3
sVep
p290
I1
sVes
p291
I20
sVer
p292
I75
sVrt
p293
I34
sVrv
p294
I2
sVHy
p295
I1
sVrr
p296
I2
sVrs
p297
I6
sVry
p298
I35
sVrd
p299
I49
sVre
p300
I21
sVra
p301
I2
sVrc
p302
I1
sVrl
p303
I3
sVrn
p304
I5
sVro
p305
I12
sVri
p306
I8
sVrk
p307
I7
sVbe
p308
I3
sVwe
p309
I2
sVjy
p310
I1
sVbb
p311
I2
sVwn
p312
I1
sVbo
p313
I1
sVbi
p314
I2
sVby
p315
I14
sVvy
p316
I6
sVon
p317
I105
sVom
p318
I7
sVol
p319
I3
sVok
p320
I2
sVog
p321
I1
sVEd
p322
I1
sVoe
p323
I5
sVod
p324
I14
sVob
p325
I2
sVoy
p326
I3
sVox
p327
I1
sVow
p328
I3
sVov
p329
I3
sVou
p330
I2
sVot
p331
I6
sVos
p332
I13
sVor
p333
I17
sVop
p334
I3
sVck
p335
I33
sVch
p336
I15
sVco
p337
I10
sVce
p338
I42
sVxe
p339
I1
sVcy
p340
I3
sVzo
p341
I2
sVad
p342
I11
sVmy
p343
I10
sVtt
p344
I20
sVpp
p345
I1
sVpy
p346
I2
sVvi
p347
I1
sVph
p348
I5
sVis
p349
I27
sVir
p350
I7
sVpe
p351
I1
sVsy
p352
I2
sVht
p353
I3
sVhu
p354
I1
sVSi
p355
I1
sVhn
p356
I3
sVho
p357
I2
sVha
p358
I5
sVhe
p359
I6
sVme
p360
I6
sVuy
p361
I1
sVut
p362
I1
sVmo
p363
I4
sVup
p364
I1
sVus
p365
I39
sVur
p366
I4
sVum
p367
I1
sVul
p368
I4
sVCy
p369
I1
sVun
p370
I2
sVms
p371
I1
sVof
p372
I1
sVue
p373
I4
sVud
p374
I4
sVug
p375
I1
sVta
p376
I3
sVua
p377
I1
sVuc
p378
I1
sVex
p379
I2
sVix
p380
I2
sVac
p381
I2
sVab
p382
I2
sVae
p383
I1
sVve
p384
I4
sVag
p385
I1
sVTy
p386
I1
sVai
p387
I3
sVip
p388
I6
sVak
p389
I3
sVaj
p390
I1
sVam
p391
I21
sVal
p392
I15
sVao
p393
I1
sVan
p394
I68
sVtu
p395
I1
sVik
p396
I4
sVar
p397
I16
sVim
p398
I6
sVil
p399
I22
sVaw
p400
I2
sVin
p401
I73
sVia
p402
I3
sVax
p403
I2
sVic
p404
I14
sVaz
p405
I1
sVie
p406
I95
sVid
p407
I8
sVas
p408
I23
sVif
p409
I1
sVni
p410
I3
sVnk
p411
I2
sVnn
p412
I16
sVno
p413
I11
sVna
p414
I2
sVdi
p415
I2
sVnd
p416
I23
sVne
p417
I37
sVng
p418
I10
sVny
p419
I20
sVnz
p420
I2
sVvo
p421
I1
sVig
p422
I7
sVns
p423
I7
sVnt
p424
I14
sVla
p425
I1
sVio
p426
I17
sVfy
p427
I4
sVit
p428
I7
sVfa
p429
I1
sVba
p430
I1
sVfe
p431
I2
sVff
p432
I6
sVau
p433
I1
sVky
p434
I5
sVfo
p435
I3
sVlm
p436
I3
sVka
p437
I1
sVEv
p438
I1
sVke
p439
I16
sVss
p440
I7
sVki
p441
I4
sVko
p442
I1
sViz
p443
I1
sVst
p444
I6
sVks
p445
I2
sVhy
p446
I2
sVsh
p447
I12
sVso
p448
I3
sVat
p449
I2
sVsa
p450
I1
sVse
p451
I10
stRp452
sg23
I264
sg24
F2152
sbs(g9
S'female_prob'
p453
tp454
g1
(g14
g3
NtRp455
(dp456
g17
F0.5
sg18
I3540
sg19
g20
((dp457
F0.99980003999200162
I3540
stRp458
sg23
I2
sg24
F3541
sbs(g8
g453
tp459
g1
(g14
g3
NtRp460
(dp461
g17
F0.5
sg18
I2020
sg19
g20
((dp462
F0.99966021066938493
I2020
stRp463
sg23
I2
sg24
F2021
sbs(g9
g12
tp464
g1
(g14
g3
NtRp465
(dp466
g17
F0.5
sg18
I3540
sg19
g20
((dp467
I00
I1011
sI01
I2529
stRp468
sg23
I2
sg24
F3541
sbs(g8
g205
tp469
g1
(g14
g3
NtRp470
(dp471
g17
F0.5
sg18
I2020
sg19
g20
((dp472
F0.00033978933061501872
I2020
stRp473
sg23
I2
sg24
F2021
sbssS'_label_probdist'
p474
g1
(g14
g3
NtRp475
(dp476
g17
F0.5
sg18
I5560
sg19
g20
((dp477
g8
I2020
sg9
I3540
stRp478
sg23
I2
sg24
F5561
sbsb.